; Function Attrs: null_pointer_is_valid sspstrong uwtable
define internal noundef zeroext i16 @be_cic(ptr noundef %0, ptr noundef %1, ptr readnone captures(none) %2, i32 noundef %3, i32 %4, ptr noundef %5, i32 noundef %6) #1 {
  %8 = tail call zeroext i16 @tvb_get_ntohs(ptr noundef %0, i32 noundef %3)
  %9 = load i32, ptr @hf_gsm_a_bssmap_pcm_multiplexer, align 4
  %10 = tail call ptr @proto_tree_add_item(ptr noundef %1, i32 noundef %9, ptr noundef %0, i32 noundef %3, i32 noundef 2, i32 noundef 0)
  %11 = load i32, ptr @hf_gsm_a_bssmap_timeslot, align 4
  %12 = tail call ptr @proto_tree_add_item(ptr noundef %1, i32 noundef %11, ptr noundef %0, i32 noundef %3, i32 noundef 2, i32 noundef 0)
  %.not = icmp eq ptr %5, null
  br i1 %.not, label %17, label %13

13:                                               ; preds = %7
  %14 = zext i16 %8 to i32
  %15 = sext i32 %6 to i64
  %16 = tail call i32 (ptr, i64, i32, i64, ptr, ...) @__snprintf_chk(ptr noundef nonnull %5, i64 noundef %15, i32 noundef 2, i64 noundef -1, ptr noundef nonnull @.str.717, i32 noundef %14, i32 noundef %14)
  br label %17

17:                                               ; preds = %13, %7
  ret i16 2
}